target datalayout = "e-m:e-p270:32:32-p271:32:32-p272:64:64-i64:64-i128:128-f80:128-n8:16:32:64-S128"
target triple = "x86_64-pc-linux-gnu"

%struct.quic_stream_map_st = type { ptr, %struct.quic_stream_list_node_st, %struct.quic_stream_list_node_st, %struct.quic_stream_list_node_st, i64, i64, i64, i64, i64, ptr, ptr, ptr, ptr, ptr, i32 }
%struct.quic_stream_list_node_st = type { ptr, ptr }
%struct.quic_stream_st = type { %struct.quic_stream_list_node_st, %struct.quic_stream_list_node_st, %struct.quic_stream_list_node_st, ptr, i64, i64, i64, i64, i64, i64, i64, ptr, ptr, %struct.quic_txfc_st, %struct.quic_rxfc_st, i64 }
%struct.quic_txfc_st = type { ptr, i64, i64, i8 }
%struct.quic_rxfc_st = type { i64, i64, i64, i64, i64, i64, i64, %struct.OSSL_TIME, ptr, ptr, ptr, i8, i8, i8, i8 }
%struct.OSSL_TIME = type { i64 }

; Function Attrs: nounwind uwtable
define internal ptr @qsm_get_max_streams_rxfc(ptr noundef %0, ptr noundef %1) #0 {
  %3 = alloca ptr, align 8
  %4 = alloca ptr, align 8
  store ptr %0, ptr %3, align 8, !tbaa !3
  store ptr %1, ptr %4, align 8, !tbaa !37
  %5 = load ptr, ptr %4, align 8, !tbaa !37
  %6 = call i32 @ossl_quic_stream_is_bidi(ptr noundef %5)
  %7 = icmp ne i32 %6, 0
  br i1 %7, label %8, label %12

8:                                                ; preds = %2
  %9 = load ptr, ptr %3, align 8, !tbaa !3
  %10 = getelementptr inbounds nuw %struct.quic_stream_map_st, ptr %9, i32 0, i32 12
  %11 = load ptr, ptr %10, align 8, !tbaa !34
  br label %16

12:                                               ; preds = %2
  %13 = load ptr, ptr %3, align 8, !tbaa !3
  %14 = getelementptr inbounds nuw %struct.quic_stream_map_st, ptr %13, i32 0, i32 13
  %15 = load ptr, ptr %14, align 8, !tbaa !35
  br label %16

16:                                               ; preds = %12, %8
  %17 = phi ptr [ %11, %8 ], [ %15, %12 ]
  ret ptr %17
}

; Function Attrs: inlinehint nounwind uwtable
define internal i32 @ossl_quic_stream_is_bidi(ptr noundef %0) #1 {
  %2 = alloca ptr, align 8
  store ptr %0, ptr %2, align 8, !tbaa !37
  %3 = load ptr, ptr %2, align 8, !tbaa !37
  %4 = getelementptr inbounds nuw %struct.quic_stream_st, ptr %3, i32 0, i32 15
  %5 = load i64, ptr %4, align 8
  %6 = and i64 %5, 255
  %7 = trunc i64 %6 to i32
  %8 = and i32 %7, 2
  %9 = icmp eq i32 %8, 0
  %10 = zext i1 %9 to i32
  ret i32 %10
}

; Function Attrs: nounwind uwtable
define internal void @list_remove(ptr noundef %0, ptr noundef %1) #0 {
  %3 = alloca ptr, align 8
  %4 = alloca ptr, align 8
  store ptr %0, ptr %3, align 8, !tbaa !54
  store ptr %1, ptr %4, align 8, !tbaa !54
  %5 = load ptr, ptr %4, align 8, !tbaa !54
  %6 = getelementptr inbounds nuw %struct.quic_stream_list_node_st, ptr %5, i32 0, i32 1
  %7 = load ptr, ptr %6, align 8, !tbaa !55
  %8 = load ptr, ptr %4, align 8, !tbaa !54
  %9 = getelementptr inbounds nuw %struct.quic_stream_list_node_st, ptr %8, i32 0, i32 0
  %10 = load ptr, ptr %9, align 8, !tbaa !56
  %11 = getelementptr inbounds nuw %struct.quic_stream_list_node_st, ptr %10, i32 0, i32 1
  store ptr %7, ptr %11, align 8, !tbaa !55
  %12 = load ptr, ptr %4, align 8, !tbaa !54
  %13 = getelementptr inbounds nuw %struct.quic_stream_list_node_st, ptr %12, i32 0, i32 0
  %14 = load ptr, ptr %13, align 8, !tbaa !56
  %15 = load ptr, ptr %4, align 8, !tbaa !54
  %16 = getelementptr inbounds nuw %struct.quic_stream_list_node_st, ptr %15, i32 0, i32 1
  %17 = load ptr, ptr %16, align 8, !tbaa !55
  %18 = getelementptr inbounds nuw %struct.quic_stream_list_node_st, ptr %17, i32 0, i32 0
  store ptr %14, ptr %18, align 8, !tbaa !56
  %19 = load ptr, ptr %4, align 8, !tbaa !54
  %20 = getelementptr inbounds nuw %struct.quic_stream_list_node_st, ptr %19, i32 0, i32 0
  store ptr null, ptr %20, align 8, !tbaa !56
  %21 = load ptr, ptr %4, align 8, !tbaa !54
  %22 = getelementptr inbounds nuw %struct.quic_stream_list_node_st, ptr %21, i32 0, i32 1
  store ptr null, ptr %22, align 8, !tbaa !55
  ret void
}

; Function Attrs: nounwind uwtable
define void @ossl_quic_stream_map_remove_from_accept_queue(ptr noundef %0, ptr noundef %1, i64 %2) #0 {
  %4 = alloca %struct.OSSL_TIME, align 8
  %5 = alloca ptr, align 8
  %6 = alloca ptr, align 8
  %7 = alloca ptr, align 8
  %8 = getelementptr inbounds nuw %struct.OSSL_TIME, ptr %4, i32 0, i32 0
  store i64 %2, ptr %8, align 8
  store ptr %0, ptr %5, align 8, !tbaa !3
  store ptr %1, ptr %6, align 8, !tbaa !37
  call void @llvm.lifetime.start.p0(i64 8, ptr %7) #5
  %9 = load ptr, ptr %5, align 8, !tbaa !3
  %10 = getelementptr inbounds nuw %struct.quic_stream_map_st, ptr %9, i32 0, i32 2
  %11 = load ptr, ptr %6, align 8, !tbaa !37
  %12 = getelementptr inbounds nuw %struct.quic_stream_st, ptr %11, i32 0, i32 1
  call void @list_remove(ptr noundef %10, ptr noundef %12)
  %13 = load ptr, ptr %6, align 8, !tbaa !37
  %14 = call i32 @ossl_quic_stream_is_bidi(ptr noundef %13)
  %15 = icmp ne i32 %14, 0
  br i1 %15, label %16, label %21

16:                                               ; preds = %3
  %17 = load ptr, ptr %5, align 8, !tbaa !3
  %18 = getelementptr inbounds nuw %struct.quic_stream_map_st, ptr %17, i32 0, i32 6
  %19 = load i64, ptr %18, align 8, !tbaa !29
  %20 = add i64 %19, -1
  store i64 %20, ptr %18, align 8, !tbaa !29
  br label %26

21:                                               ; preds = %3
  %22 = load ptr, ptr %5, align 8, !tbaa !3
  %23 = getelementptr inbounds nuw %struct.quic_stream_map_st, ptr %22, i32 0, i32 7
  %24 = load i64, ptr %23, align 8, !tbaa !30
  %25 = add i64 %24, -1
  store i64 %25, ptr %23, align 8, !tbaa !30
  br label %26

26:                                               ; preds = %21, %16
  %27 = load ptr, ptr %5, align 8, !tbaa !3
  %28 = load ptr, ptr %6, align 8, !tbaa !37
  %29 = call ptr @qsm_get_max_streams_rxfc(ptr noundef %27, ptr noundef %28)
  store ptr %29, ptr %7, align 8, !tbaa !9
  %30 = icmp ne ptr %29, null
  br i1 %30, label %31, label %36

31:                                               ; preds = %26
  %32 = load ptr, ptr %7, align 8, !tbaa !9
  %33 = getelementptr inbounds nuw %struct.OSSL_TIME, ptr %4, i32 0, i32 0
  %34 = load i64, ptr %33, align 8
  %35 = call i32 @ossl_quic_rxfc_on_retire(ptr noundef %32, i64 noundef 1, i64 %34)
  br label %36

36:                                               ; preds = %31, %26
  call void @llvm.lifetime.end.p0(i64 8, ptr %7) #5
  ret void
}