; Function Attrs: nounwind uwtable
define void @ossl_quic_stream_map_remove_from_accept_queue(ptr noundef captures(none) %0, ptr noundef captures(none) %1, i64 %2) local_unnamed_addr #0 {
  %4 = getelementptr inbounds nuw i8, ptr %1, i64 16
  %5 = getelementptr inbounds nuw i8, ptr %1, i64 24
  %6 = load ptr, ptr %5, align 8, !tbaa !38
  %7 = load ptr, ptr %4, align 8, !tbaa !37
  %8 = getelementptr inbounds nuw i8, ptr %7, i64 8
  store ptr %6, ptr %8, align 8, !tbaa !38
  store ptr %7, ptr %6, align 8, !tbaa !37
  tail call void @llvm.memset.p0.i64(ptr noundef nonnull align 8 dereferenceable(16) %4, i8 0, i64 16, i1 false)
  %9 = getelementptr i8, ptr %1, i64 256
  %.val = load i64, ptr %9, align 8
  %10 = and i64 %.val, 2
  %.not = icmp eq i64 %10, 0
  %. = select i1 %.not, i64 72, i64 80
  %11 = getelementptr inbounds nuw i8, ptr %0, i64 %.
  %12 = load i64, ptr %11, align 8, !tbaa !45
  %13 = add i64 %12, -1
  store i64 %13, ptr %11, align 8, !tbaa !45
  %.val9 = load i64, ptr %9, align 8
  %14 = and i64 %.val9, 2
  %.not.i = icmp eq i64 %14, 0
  %.in.v.i = select i1 %.not.i, i64 120, i64 128
  %.in.i = getelementptr inbounds nuw i8, ptr %0, i64 %.in.v.i
  %15 = load ptr, ptr %.in.i, align 8, !tbaa !50
  %.not8 = icmp eq ptr %15, null
  br i1 %.not8, label %18, label %16

16:                                               ; preds = %3
  %17 = tail call i32 @ossl_quic_rxfc_on_retire(ptr noundef nonnull %15, i64 noundef 1, i64 %2) #13
  br label %18

18:                                               ; preds = %16, %3
  ret void
}